target datalayout = "e-m:e-p270:32:32-p271:32:32-p272:64:64-i64:64-i128:128-f80:128-n8:16:32:64-S128"
target triple = "x86_64-pc-linux-gnu"

%struct.TupleTableSlotOps = type { i64, ptr, ptr, ptr, ptr, ptr, ptr, ptr, ptr, ptr, ptr, ptr, ptr }
%struct.TupleTableSlot = type { i32, i16, i16, ptr, ptr, ptr, ptr, ptr, %struct.ItemPointerData, i32 }
%struct.ItemPointerData = type { %struct.BlockIdData, i16 }
%struct.BlockIdData = type { i16, i16 }
%struct.TupleDescData = type { i32, i32, i32, i32, ptr, [0 x %struct.CompactAttribute] }
%struct.CompactAttribute = type { i32, i16, i8, i8, i8, i8, i8, i8, i8 }
%struct.ForEachState = type { ptr, i32 }
%struct.List = type { i32, i32, i32, ptr, [0 x %union.ListCell] }
%union.ListCell = type { ptr }

; Function Attrs: inlinehint nounwind uwtable
define internal ptr @ExecClearTuple(ptr noundef %0) #4 {
  %2 = alloca ptr, align 8
  store ptr %0, ptr %2, align 8
  %3 = load ptr, ptr %2, align 8
  %4 = getelementptr inbounds nuw %struct.TupleTableSlot, ptr %3, i32 0, i32 3
  %5 = load ptr, ptr %4, align 8
  %6 = getelementptr inbounds nuw %struct.TupleTableSlotOps, ptr %5, i32 0, i32 3
  %7 = load ptr, ptr %6, align 8
  %8 = load ptr, ptr %2, align 8
  call void %7(ptr noundef %8)
  %9 = load ptr, ptr %2, align 8
  ret ptr %9
}

; Function Attrs: nounwind uwtable
define dso_local void @ExecResetTupleTable(ptr noundef %0, i1 noundef zeroext %1) #0 {
  %3 = alloca ptr, align 8
  %4 = alloca i8, align 1
  %5 = alloca ptr, align 8
  %6 = alloca %struct.ForEachState, align 8
  %7 = alloca ptr, align 8
  store ptr %0, ptr %3, align 8
  %8 = zext i1 %1 to i8
  store i8 %8, ptr %4, align 1
  call void @llvm.lifetime.start.p0(i64 8, ptr %5) #10
  call void @llvm.lifetime.start.p0(i64 16, ptr %6) #10
  %9 = getelementptr inbounds nuw %struct.ForEachState, ptr %6, i32 0, i32 0
  %10 = load ptr, ptr %3, align 8
  store ptr %10, ptr %9, align 8
  %11 = getelementptr inbounds nuw %struct.ForEachState, ptr %6, i32 0, i32 1
  store i32 0, ptr %11, align 8
  %12 = getelementptr i8, ptr %6, i64 12
  call void @llvm.memset.p0.i64(ptr align 4 %12, i8 0, i64 4, i1 false)
  br label %13

13:                                               ; preds = %103, %2
  %14 = getelementptr inbounds nuw %struct.ForEachState, ptr %6, i32 0, i32 0
  %15 = load ptr, ptr %14, align 8
  %16 = icmp ne ptr %15, null
  br i1 %16, label %17, label %34

17:                                               ; preds = %13
  %18 = getelementptr inbounds nuw %struct.ForEachState, ptr %6, i32 0, i32 1
  %19 = load i32, ptr %18, align 8
  %20 = getelementptr inbounds nuw %struct.ForEachState, ptr %6, i32 0, i32 0
  %21 = load ptr, ptr %20, align 8
  %22 = getelementptr inbounds nuw %struct.List, ptr %21, i32 0, i32 1
  %23 = load i32, ptr %22, align 4
  %24 = icmp slt i32 %19, %23
  br i1 %24, label %25, label %34

25:                                               ; preds = %17
  %26 = getelementptr inbounds nuw %struct.ForEachState, ptr %6, i32 0, i32 0
  %27 = load ptr, ptr %26, align 8
  %28 = getelementptr inbounds nuw %struct.List, ptr %27, i32 0, i32 3
  %29 = load ptr, ptr %28, align 8
  %30 = getelementptr inbounds nuw %struct.ForEachState, ptr %6, i32 0, i32 1
  %31 = load i32, ptr %30, align 8
  %32 = sext i32 %31 to i64
  %33 = getelementptr inbounds %union.ListCell, ptr %29, i64 %32
  store ptr %33, ptr %5, align 8
  br label %35

34:                                               ; preds = %17, %13
  store ptr null, ptr %5, align 8
  br label %35

35:                                               ; preds = %34, %25
  %36 = phi i32 [ 1, %25 ], [ 0, %34 ]
  %37 = icmp ne i32 %36, 0
  br i1 %37, label %39, label %38

38:                                               ; preds = %35
  call void @llvm.lifetime.end.p0(i64 16, ptr %6) #10
  br label %107

39:                                               ; preds = %35
  call void @llvm.lifetime.start.p0(i64 8, ptr %7) #10
  %40 = load ptr, ptr %5, align 8
  %41 = load ptr, ptr %40, align 8
  store ptr %41, ptr %7, align 8
  %42 = load ptr, ptr %7, align 8
  %43 = call ptr @ExecClearTuple(ptr noundef %42)
  %44 = load ptr, ptr %7, align 8
  %45 = getelementptr inbounds nuw %struct.TupleTableSlot, ptr %44, i32 0, i32 3
  %46 = load ptr, ptr %45, align 8
  %47 = getelementptr inbounds nuw %struct.TupleTableSlotOps, ptr %46, i32 0, i32 2
  %48 = load ptr, ptr %47, align 8
  %49 = load ptr, ptr %7, align 8
  call void %48(ptr noundef %49)
  %50 = load ptr, ptr %7, align 8
  %51 = getelementptr inbounds nuw %struct.TupleTableSlot, ptr %50, i32 0, i32 4
  %52 = load ptr, ptr %51, align 8
  %53 = icmp ne ptr %52, null
  br i1 %53, label %54, label %71

54:                                               ; preds = %39
  br label %55

55:                                               ; preds = %54
  %56 = load ptr, ptr %7, align 8
  %57 = getelementptr inbounds nuw %struct.TupleTableSlot, ptr %56, i32 0, i32 4
  %58 = load ptr, ptr %57, align 8
  %59 = getelementptr inbounds nuw %struct.TupleDescData, ptr %58, i32 0, i32 3
  %60 = load i32, ptr %59, align 4
  %61 = icmp sge i32 %60, 0
  br i1 %61, label %62, label %66

62:                                               ; preds = %55
  %63 = load ptr, ptr %7, align 8
  %64 = getelementptr inbounds nuw %struct.TupleTableSlot, ptr %63, i32 0, i32 4
  %65 = load ptr, ptr %64, align 8
  call void @DecrTupleDescRefCount(ptr noundef %65)
  br label %66

66:                                               ; preds = %62, %55
  br label %67

67:                                               ; preds = %66
  br label %68

68:                                               ; preds = %67
  %69 = load ptr, ptr %7, align 8
  %70 = getelementptr inbounds nuw %struct.TupleTableSlot, ptr %69, i32 0, i32 4
  store ptr null, ptr %70, align 8
  br label %71

71:                                               ; preds = %68, %39
  %72 = load i8, ptr %4, align 1, !range !4, !noundef !5
  %73 = trunc i8 %72 to i1
  br i1 %73, label %74, label %102

74:                                               ; preds = %71
  %75 = load ptr, ptr %7, align 8
  %76 = getelementptr inbounds nuw %struct.TupleTableSlot, ptr %75, i32 0, i32 1
  %77 = load i16, ptr %76, align 4
  %78 = zext i16 %77 to i32
  %79 = and i32 %78, 16
  %80 = icmp ne i32 %79, 0
  br i1 %80, label %100, label %81

81:                                               ; preds = %74
  %82 = load ptr, ptr %7, align 8
  %83 = getelementptr inbounds nuw %struct.TupleTableSlot, ptr %82, i32 0, i32 5
  %84 = load ptr, ptr %83, align 8
  %85 = icmp ne ptr %84, null
  br i1 %85, label %86, label %90

86:                                               ; preds = %81
  %87 = load ptr, ptr %7, align 8
  %88 = getelementptr inbounds nuw %struct.TupleTableSlot, ptr %87, i32 0, i32 5
  %89 = load ptr, ptr %88, align 8
  call void @pfree(ptr noundef %89)
  br label %90

90:                                               ; preds = %86, %81
  %91 = load ptr, ptr %7, align 8
  %92 = getelementptr inbounds nuw %struct.TupleTableSlot, ptr %91, i32 0, i32 6
  %93 = load ptr, ptr %92, align 8
  %94 = icmp ne ptr %93, null
  br i1 %94, label %95, label %99

95:                                               ; preds = %90
  %96 = load ptr, ptr %7, align 8
  %97 = getelementptr inbounds nuw %struct.TupleTableSlot, ptr %96, i32 0, i32 6
  %98 = load ptr, ptr %97, align 8
  call void @pfree(ptr noundef %98)
  br label %99

99:                                               ; preds = %95, %90
  br label %100

100:                                              ; preds = %99, %74
  %101 = load ptr, ptr %7, align 8
  call void @pfree(ptr noundef %101)
  br label %102

102:                                              ; preds = %100, %71
  call void @llvm.lifetime.end.p0(i64 8, ptr %7) #10
  br label %103

103:                                              ; preds = %102
  %104 = getelementptr inbounds nuw %struct.ForEachState, ptr %6, i32 0, i32 1
  %105 = load i32, ptr %104, align 8
  %106 = add i32 %105, 1
  store i32 %106, ptr %104, align 8
  br label %13, !llvm.loop !10

107:                                              ; preds = %38
  %108 = load i8, ptr %4, align 1, !range !4, !noundef !5
  %109 = trunc i8 %108 to i1
  br i1 %109, label %110, label %112

110:                                              ; preds = %107
  %111 = load ptr, ptr %3, align 8
  call void @list_free(ptr noundef %111)
  br label %112

112:                                              ; preds = %110, %107
  call void @llvm.lifetime.end.p0(i64 8, ptr %5) #10
  ret void
}