; Function Attrs: nounwind uwtable
define dso_local void @ExecResetTupleTable(ptr noundef %0, i1 noundef zeroext %1) local_unnamed_addr #1 {
  %3 = getelementptr inbounds nuw i8, ptr %0, i64 4
  %.not = icmp eq ptr %0, null
  br i1 %.not, label %._crit_edge, label %.lr.ph

.lr.ph:                                           ; preds = %2
  %4 = getelementptr inbounds nuw i8, ptr %0, i64 16
  %5 = load i32, ptr %3, align 4
  %6 = icmp sgt i32 %5, 0
  br i1 %1, label %.lr.ph.split.us.split, label %.lr.ph.split.split

.lr.ph.split.us.split:                            ; preds = %.lr.ph
  br i1 %6, label %.lr.ph39, label %._crit_edge.thread

.lr.ph39:                                         ; preds = %.lr.ph.split.us.split, %37
  %indvars.iv42 = phi i64 [ %indvars.iv.next43, %37 ], [ 0, %.lr.ph.split.us.split ]
  %7 = load ptr, ptr %4, align 8
  %8 = getelementptr inbounds nuw %union.ListCell, ptr %7, i64 %indvars.iv42
  %9 = load ptr, ptr %8, align 8
  %10 = getelementptr inbounds nuw i8, ptr %9, i64 8
  %11 = load ptr, ptr %10, align 8
  %12 = getelementptr inbounds nuw i8, ptr %11, i64 24
  %13 = load ptr, ptr %12, align 8
  tail call void %13(ptr noundef %9) #14
  %14 = load ptr, ptr %10, align 8
  %15 = getelementptr inbounds nuw i8, ptr %14, i64 16
  %16 = load ptr, ptr %15, align 8
  tail call void %16(ptr noundef %9) #14
  %17 = getelementptr inbounds nuw i8, ptr %9, i64 16
  %18 = load ptr, ptr %17, align 8
  %.not26.us = icmp eq ptr %18, null
  br i1 %.not26.us, label %25, label %19

19:                                               ; preds = %.lr.ph39
  %20 = getelementptr inbounds nuw i8, ptr %18, i64 12
  %21 = load i32, ptr %20, align 4
  %22 = icmp sgt i32 %21, -1
  br i1 %22, label %23, label %24

23:                                               ; preds = %19
  tail call void @DecrTupleDescRefCount(ptr noundef nonnull %18) #14
  br label %24

24:                                               ; preds = %23, %19
  store ptr null, ptr %17, align 8
  br label %25

25:                                               ; preds = %24, %.lr.ph39
  %26 = getelementptr inbounds nuw i8, ptr %9, i64 4
  %27 = load i16, ptr %26, align 4
  %28 = and i16 %27, 16
  %.not27.us = icmp eq i16 %28, 0
  br i1 %.not27.us, label %29, label %37

29:                                               ; preds = %25
  %30 = getelementptr inbounds nuw i8, ptr %9, i64 24
  %31 = load ptr, ptr %30, align 8
  %.not28.us = icmp eq ptr %31, null
  br i1 %.not28.us, label %33, label %32

32:                                               ; preds = %29
  tail call void @pfree(ptr noundef nonnull %31) #14
  br label %33

33:                                               ; preds = %32, %29
  %34 = getelementptr inbounds nuw i8, ptr %9, i64 32
  %35 = load ptr, ptr %34, align 8
  %.not29.us = icmp eq ptr %35, null
  br i1 %.not29.us, label %37, label %36

36:                                               ; preds = %33
  tail call void @pfree(ptr noundef nonnull %35) #14
  br label %37

37:                                               ; preds = %36, %33, %25
  tail call void @pfree(ptr noundef nonnull %9) #14
  %indvars.iv.next43 = add nuw nsw i64 %indvars.iv42, 1
  %38 = load i32, ptr %3, align 4
  %39 = sext i32 %38 to i64
  %40 = icmp slt i64 %indvars.iv.next43, %39
  br i1 %40, label %.lr.ph39, label %._crit_edge

.lr.ph.split.split:                               ; preds = %.lr.ph
  br i1 %6, label %.lr.ph37, label %._crit_edge.thread45

._crit_edge:                                      ; preds = %59, %37, %2
  br i1 %1, label %._crit_edge.thread, label %._crit_edge.thread45

.lr.ph37:                                         ; preds = %.lr.ph.split.split, %59
  %indvars.iv = phi i64 [ %indvars.iv.next, %59 ], [ 0, %.lr.ph.split.split ]
  %41 = load ptr, ptr %4, align 8
  %42 = getelementptr inbounds nuw %union.ListCell, ptr %41, i64 %indvars.iv
  %43 = load ptr, ptr %42, align 8
  %44 = getelementptr inbounds nuw i8, ptr %43, i64 8
  %45 = load ptr, ptr %44, align 8
  %46 = getelementptr inbounds nuw i8, ptr %45, i64 24
  %47 = load ptr, ptr %46, align 8
  tail call void %47(ptr noundef %43) #14
  %48 = load ptr, ptr %44, align 8
  %49 = getelementptr inbounds nuw i8, ptr %48, i64 16
  %50 = load ptr, ptr %49, align 8
  tail call void %50(ptr noundef %43) #14
  %51 = getelementptr inbounds nuw i8, ptr %43, i64 16
  %52 = load ptr, ptr %51, align 8
  %.not26 = icmp eq ptr %52, null
  br i1 %.not26, label %59, label %53

53:                                               ; preds = %.lr.ph37
  %54 = getelementptr inbounds nuw i8, ptr %52, i64 12
  %55 = load i32, ptr %54, align 4
  %56 = icmp sgt i32 %55, -1
  br i1 %56, label %57, label %58

57:                                               ; preds = %53
  tail call void @DecrTupleDescRefCount(ptr noundef nonnull %52) #14
  br label %58

58:                                               ; preds = %57, %53
  store ptr null, ptr %51, align 8
  br label %59

59:                                               ; preds = %58, %.lr.ph37
  %indvars.iv.next = add nuw nsw i64 %indvars.iv, 1
  %60 = load i32, ptr %3, align 4
  %61 = sext i32 %60 to i64
  %62 = icmp slt i64 %indvars.iv.next, %61
  br i1 %62, label %.lr.ph37, label %._crit_edge

._crit_edge.thread:                               ; preds = %.lr.ph.split.us.split, %._crit_edge
  tail call void @list_free(ptr noundef %0) #14
  br label %._crit_edge.thread45

._crit_edge.thread45:                             ; preds = %.lr.ph.split.split, %._crit_edge.thread, %._crit_edge
  ret void
}